target datalayout = "e-m:e-p270:32:32-p271:32:32-p272:64:64-i64:64-i128:128-f80:128-n8:16:32:64-S128"
target triple = "x86_64-pc-linux-gnu"

%struct.pointf_s = type { double, double }

; Function Attrs: nounwind uwtable
define internal { double, double } @arrow_type_gap(ptr noundef %0, double %1, double %2, double %3, double %4, double noundef %5, double noundef %6, i32 noundef %7) #0 {
  %9 = alloca %struct.pointf_s, align 8
  %10 = alloca %struct.pointf_s, align 8
  %11 = alloca %struct.pointf_s, align 8
  %12 = alloca ptr, align 8
  %13 = alloca double, align 8
  %14 = alloca double, align 8
  %15 = alloca i32, align 4
  %16 = alloca [2 x %struct.pointf_s], align 16
  %17 = getelementptr inbounds nuw { double, double }, ptr %10, i32 0, i32 0
  store double %1, ptr %17, align 8
  %18 = getelementptr inbounds nuw { double, double }, ptr %10, i32 0, i32 1
  store double %2, ptr %18, align 8
  %19 = getelementptr inbounds nuw { double, double }, ptr %11, i32 0, i32 0
  store double %3, ptr %19, align 8
  %20 = getelementptr inbounds nuw { double, double }, ptr %11, i32 0, i32 1
  store double %4, ptr %20, align 8
  store ptr %0, ptr %12, align 8, !tbaa !73
  store double %5, ptr %13, align 8, !tbaa !53
  store double %6, ptr %14, align 8, !tbaa !53
  store i32 %7, ptr %15, align 4, !tbaa !10
  call void @llvm.lifetime.start.p0(i64 32, ptr %16) #9
  %21 = getelementptr inbounds nuw %struct.pointf_s, ptr %10, i32 0, i32 0
  %22 = load double, ptr %21, align 8, !tbaa !57
  %23 = getelementptr inbounds nuw %struct.pointf_s, ptr %11, i32 0, i32 0
  %24 = load double, ptr %23, align 8, !tbaa !57
  %25 = fadd double %22, %24
  %26 = getelementptr inbounds nuw %struct.pointf_s, ptr %9, i32 0, i32 0
  store double %25, ptr %26, align 8, !tbaa !57
  %27 = getelementptr inbounds nuw %struct.pointf_s, ptr %10, i32 0, i32 1
  %28 = load double, ptr %27, align 8, !tbaa !58
  %29 = getelementptr inbounds nuw %struct.pointf_s, ptr %11, i32 0, i32 1
  %30 = load double, ptr %29, align 8, !tbaa !58
  %31 = fadd double %28, %30
  %32 = getelementptr inbounds nuw %struct.pointf_s, ptr %9, i32 0, i32 1
  store double %31, ptr %32, align 8, !tbaa !58
  %33 = getelementptr inbounds [2 x %struct.pointf_s], ptr %16, i64 0, i64 0
  call void @llvm.memcpy.p0.p0.i64(ptr align 16 %33, ptr align 8 %10, i64 16, i1 false), !tbaa.struct !56
  %34 = getelementptr inbounds [2 x %struct.pointf_s], ptr %16, i64 0, i64 1
  call void @llvm.memcpy.p0.p0.i64(ptr align 16 %34, ptr align 8 %9, i64 16, i1 false), !tbaa.struct !56
  %35 = load ptr, ptr %12, align 8, !tbaa !73
  %36 = getelementptr inbounds [2 x %struct.pointf_s], ptr %16, i64 0, i64 0
  call void @gvrender_polyline(ptr noundef %35, ptr noundef %36, i64 noundef 2)
  call void @llvm.lifetime.end.p0(i64 32, ptr %16) #9
  %37 = load { double, double }, ptr %9, align 8
  ret { double, double } %37
}