; Function Attrs: nounwind uwtable
define internal { double, double } @arrow_type_gap(ptr noundef %0, double %1, double %2, double %3, double %4, double %5, double %6, i32 %7) #0 {
  %9 = alloca [2 x %struct.pointf_s], align 16
  call void @llvm.lifetime.start.p0(i64 32, ptr nonnull %9) #12
  %10 = fadd double %1, %3
  %11 = fadd double %2, %4
  store double %1, ptr %9, align 16, !tbaa !55
  %.sroa.3.0..sroa_idx = getelementptr inbounds nuw i8, ptr %9, i64 8
  store double %2, ptr %.sroa.3.0..sroa_idx, align 8, !tbaa !55
  %12 = getelementptr inbounds nuw i8, ptr %9, i64 16
  store double %10, ptr %12, align 16, !tbaa !55
  %.sroa.33.0..sroa_idx = getelementptr inbounds nuw i8, ptr %9, i64 24
  store double %11, ptr %.sroa.33.0..sroa_idx, align 8, !tbaa !55
  call void @gvrender_polyline(ptr noundef %0, ptr noundef nonnull %9, i64 noundef 2) #12
  call void @llvm.lifetime.end.p0(i64 32, ptr nonnull %9) #12
  %.fca.0.insert = insertvalue { double, double } poison, double %10, 0
  %.fca.1.insert = insertvalue { double, double } %.fca.0.insert, double %11, 1
  ret { double, double } %.fca.1.insert
}